; Function Attrs: null_pointer_is_valid sspstrong uwtable
define internal i32 @dissect_omron_fins_tcp(ptr noundef %0, ptr noundef %1, ptr noundef %2, ptr noundef %3) #0 {
  %5 = tail call i32 @tvb_get_ntohl(ptr noundef %0, i32 noundef 0)
  %.not = icmp eq i32 %5, 1179209299
  br i1 %.not, label %6, label %8

6:                                                ; preds = %4
  tail call void @tcp_dissect_pdus(ptr noundef %0, ptr noundef %1, ptr noundef %2, i1 noundef zeroext true, i32 noundef 8, ptr noundef nonnull @get_omron_fins_tcp_pdu_len, ptr noundef nonnull @dissect_omron_fins_tcp_pdu, ptr noundef %3)
  %7 = tail call i32 @tvb_reported_length(ptr noundef %0)
  br label %8

8:                                                ; preds = %4, %6
  %.0 = phi i32 [ %7, %6 ], [ 0, %4 ]
  ret i32 %.0
}